target datalayout = "e-m:e-p270:32:32-p271:32:32-p272:64:64-i64:64-i128:128-f80:128-n8:16:32:64-S128"
target triple = "x86_64-pc-linux-gnu"

%struct.H264Context = type { ptr, ptr, %struct.VideoDSPContext, %struct.H264DSPContext, %struct.H264ChromaContext, %struct.H264QpelContext, %struct.H274FilmGrainDatabase, [36 x %struct.H264Picture], ptr, %struct.H264Picture, %struct.H264Picture, ptr, i32, i32, %struct.H2645Packet, i32, i32, i32, i32, i32, i32, i32, i32, i32, i32, i32, i32, i32, i32, i32, i32, i32, ptr, %struct.H264PredContext, ptr, [96 x i32], ptr, ptr, i32, ptr, i32, i32, i32, ptr, ptr, ptr, [2 x ptr], ptr, [16 x i8], [16 x i8], [64 x i8], [64 x i8], [16 x i8], [64 x i8], [64 x i8], [16 x i8], [64 x i8], [64 x i8], [16 x i8], [64 x i8], [64 x i8], i32, i32, i32, i32, i32, i32, i32, i32, i32, i32, i32, i32, %struct.H264ParamSets, ptr, %struct.H264POCContext, [2 x %struct.H264Ref], [32 x ptr], [32 x ptr], [18 x ptr], [16 x i32], ptr, i32, i32, [67 x %struct.MMCO], i32, i32, i32, i32, i32, i32, i32, i32, i32, i32, i32, i32, i32, i32, i32, [32 x i16], i32, i32, i32, %struct.ERContext, ptr, %struct.H264SEIContext, ptr, ptr, ptr, ptr, ptr, [32 x [2 x [64 x i32]]], i32, i32, i32 }
%struct.VideoDSPContext = type { ptr, ptr }
%struct.H264DSPContext = type { [4 x ptr], [4 x ptr], ptr, ptr, ptr, ptr, ptr, ptr, ptr, ptr, ptr, ptr, ptr, ptr, ptr, ptr, ptr, ptr, ptr, ptr, ptr, ptr, ptr, ptr, ptr, ptr, ptr, ptr }
%struct.H264ChromaContext = type { [4 x ptr], [4 x ptr] }
%struct.H264QpelContext = type { [4 x [16 x ptr]], [4 x [16 x ptr]] }
%struct.H274FilmGrainDatabase = type { [13 x [13 x [64 x [64 x i8]]]], [13 x i16], [64 x [64 x i16]] }
%struct.H264Picture = type { ptr, %struct.ThreadFrame, ptr, ptr, ptr, [2 x ptr], [2 x ptr], ptr, ptr, ptr, [2 x ptr], [2 x i32], i32, i32, i32, i32, i32, [2 x [2 x [32 x i32]]], [2 x [2 x i32]], i32, i32, i32, i32, i32, i32, i32, ptr, i32, i32, i32, ptr, i32 }
%struct.ThreadFrame = type { ptr, [2 x ptr], ptr }
%struct.H2645Packet = type { ptr, %struct.H2645RBSP, i32, i32, i32 }
%struct.H2645RBSP = type { ptr, ptr, i32, i32 }
%struct.H264PredContext = type { [15 x ptr], [12 x ptr], [11 x ptr], [9 x ptr], [2 x ptr], [2 x ptr], [2 x ptr], [3 x ptr], [3 x ptr] }
%struct.H264ParamSets = type { [32 x ptr], [256 x ptr], ptr, ptr, [2 x i32] }
%struct.H264POCContext = type { i32, i32, i32, [2 x i32], i32, i32, i32, i32, i32, i32 }
%struct.H264Ref = type { [3 x ptr], [3 x i32], i32, i32, i32, ptr }
%struct.MMCO = type { i32, i32, i32 }
%struct.ERContext = type { ptr, ptr, i32, ptr, i32, i32, i32, i64, i64, i32, i32, ptr, ptr, [3 x ptr], ptr, ptr, [2 x [4 x [2 x i32]]], %struct.ERPicture, %struct.ERPicture, %struct.ERPicture, [2 x ptr], [2 x ptr], i16, i16, i32, i32, ptr, ptr }
%struct.ERPicture = type { ptr, ptr, ptr, [2 x ptr], [2 x ptr], ptr, i32 }
%struct.H264SEIContext = type { %struct.H2645SEI, %struct.H264SEIPictureTiming, %struct.H264SEIRecoveryPoint, %struct.H264SEIBufferingPeriod, %struct.H264SEIGreenMetaData }
%struct.H2645SEI = type { %struct.H2645SEIA53Caption, %struct.H2645SEIAFD, %struct.HEVCSEIDynamicHDRPlus, %struct.HEVCSEIDynamicHDRVivid, %struct.HEVCSEILCEVC, %struct.H2645SEIUnregistered, %struct.H2645SEIFramePacking, %struct.H2645SEIDisplayOrientation, %struct.H2645SEIAlternativeTransfer, %struct.H2645SEIAmbientViewingEnvironment, %struct.H2645SEIMasteringDisplay, %struct.H2645SEIContentLight, %struct.AVFilmGrainAFGS1Params, ptr }
%struct.H2645SEIA53Caption = type { ptr }
%struct.H2645SEIAFD = type { i32, i8 }
%struct.HEVCSEIDynamicHDRPlus = type { ptr }
%struct.HEVCSEIDynamicHDRVivid = type { ptr }
%struct.HEVCSEILCEVC = type { ptr }
%struct.H2645SEIUnregistered = type { ptr, i32, i32 }
%struct.H2645SEIFramePacking = type { i32, i32, i32, i32, i32, i32, i32, i32 }
%struct.H2645SEIDisplayOrientation = type { i32, i32, i32, i32 }
%struct.H2645SEIAlternativeTransfer = type { i32, i32 }
%struct.H2645SEIAmbientViewingEnvironment = type { i32, i32, i16, i16 }
%struct.H2645SEIMasteringDisplay = type { i32, [3 x [2 x i16]], [2 x i16], i32, i32 }
%struct.H2645SEIContentLight = type { i32, i16, i16 }
%struct.AVFilmGrainAFGS1Params = type { i32, [8 x ptr] }
%struct.H264SEIPictureTiming = type { [40 x i8], i32, i32, i32, i32, i32, i32, [3 x %struct.H264SEITimeCode], i32 }
%struct.H264SEITimeCode = type { i32, i32, i32, i32, i32, i32 }
%struct.H264SEIRecoveryPoint = type { i32 }
%struct.H264SEIBufferingPeriod = type { i32, [32 x i32] }
%struct.H264SEIGreenMetaData = type { i8, i8, i16, i16, i8, i8, i8, i8, i8, i16 }
%struct.H264SliceContext = type { ptr, %struct.GetBitContext, ptr, i32, i32, i32, i32, i32, [2 x i32], i32, i32, i32, i32, i32, %struct.H264PredWeightTable, i32, i32, i32, i32, [40 x i8], ptr, i32, i32, i32, [2 x i32], i32, i32, i32, [2 x i32], ptr, i32, i32, i32, i32, i32, i64, i64, i64, i64, i32, i32, i32, i32, i32, i32, i32, i32, i32, i32, i32, i32, i32, i32, i32, i32, i32, i32, i32, i32, [32 x i32], [2 x [32 x i32]], [2 x [48 x i32]], [2 x [2 x [48 x i32]]], [2 x i32], i32, [2 x [48 x %struct.H264Ref]], [2 x [32 x %struct.anon]], [2 x i32], i32, ptr, ptr, ptr, [2 x ptr], i32, i32, [2 x i32], [120 x i8], [8 x i8], [2 x [40 x [2 x i16]]], [2 x [40 x i8]], [2 x [40 x [2 x i8]]], [40 x i8], [4 x i16], [1536 x i16], [3 x [32 x i16]], [512 x i16], [2 x ptr], %struct.CABACContext, [1024 x i8], i32, [67 x %struct.MMCO], i32, i32, i32, i32, i32, i32, [2 x i32], i32, i32 }
%struct.GetBitContext = type { ptr, ptr, i32, i32, i32 }
%struct.H264PredWeightTable = type { i32, i32, i32, i32, [2 x i32], [2 x i32], [48 x [2 x [2 x i32]]], [48 x [2 x [2 x [2 x i32]]]], [48 x [48 x [2 x i32]]] }
%struct.anon = type { i8, i32 }
%struct.CABACContext = type { i32, i32, ptr, ptr, ptr }

; Function Attrs: nounwind uwtable
define internal void @decode_finish_row(ptr noundef %0, ptr noundef %1) #0 {
  %3 = alloca ptr, align 8
  %4 = alloca ptr, align 8
  %5 = alloca i32, align 4
  %6 = alloca i32, align 4
  %7 = alloca i32, align 4
  %8 = alloca i32, align 4
  %9 = alloca i32, align 4
  store ptr %0, ptr %3, align 8, !tbaa !29
  store ptr %1, ptr %4, align 8, !tbaa !149
  call void @llvm.lifetime.start.p0(i64 4, ptr %5) #10
  %10 = load ptr, ptr %4, align 8, !tbaa !149
  %11 = getelementptr inbounds nuw %struct.H264SliceContext, ptr %10, i32 0, i32 40
  %12 = load i32, ptr %11, align 4, !tbaa !222
  %13 = load ptr, ptr %3, align 8, !tbaa !29
  %14 = getelementptr inbounds nuw %struct.H264Context, ptr %13, i32 0, i32 41
  %15 = load i32, ptr %14, align 4, !tbaa !104
  %16 = icmp ne i32 %15, 3
  %17 = zext i1 %16 to i32
  %18 = ashr i32 %12, %17
  %19 = mul nsw i32 16, %18
  store i32 %19, ptr %5, align 4, !tbaa !79
  call void @llvm.lifetime.start.p0(i64 4, ptr %6) #10
  %20 = load ptr, ptr %3, align 8, !tbaa !29
  %21 = getelementptr inbounds nuw %struct.H264Context, ptr %20, i32 0, i32 62
  %22 = load i32, ptr %21, align 4, !tbaa !84
  %23 = mul nsw i32 16, %22
  %24 = load ptr, ptr %3, align 8, !tbaa !29
  %25 = getelementptr inbounds nuw %struct.H264Context, ptr %24, i32 0, i32 41
  %26 = load i32, ptr %25, align 4, !tbaa !104
  %27 = icmp ne i32 %26, 3
  %28 = zext i1 %27 to i32
  %29 = ashr i32 %23, %28
  store i32 %29, ptr %6, align 4, !tbaa !79
  call void @llvm.lifetime.start.p0(i64 4, ptr %7) #10
  %30 = load ptr, ptr %3, align 8, !tbaa !29
  %31 = getelementptr inbounds nuw %struct.H264Context, ptr %30, i32 0, i32 40
  %32 = load i32, ptr %31, align 8, !tbaa !105
  %33 = shl i32 16, %32
  store i32 %33, ptr %7, align 4, !tbaa !79
  call void @llvm.lifetime.start.p0(i64 4, ptr %8) #10
  %34 = load ptr, ptr %3, align 8, !tbaa !29
  %35 = getelementptr inbounds nuw %struct.H264Context, ptr %34, i32 0, i32 40
  %36 = load i32, ptr %35, align 8, !tbaa !105
  %37 = shl i32 20, %36
  store i32 %37, ptr %8, align 4, !tbaa !79
  %38 = load ptr, ptr %4, align 8, !tbaa !149
  %39 = getelementptr inbounds nuw %struct.H264SliceContext, ptr %38, i32 0, i32 11
  %40 = load i32, ptr %39, align 4, !tbaa !216
  %41 = icmp ne i32 %40, 0
  br i1 %41, label %42, label %56

42:                                               ; preds = %2
  %43 = load i32, ptr %5, align 4, !tbaa !79
  %44 = load i32, ptr %7, align 4, !tbaa !79
  %45 = add nsw i32 %43, %44
  %46 = load i32, ptr %6, align 4, !tbaa !79
  %47 = icmp sge i32 %45, %46
  br i1 %47, label %48, label %52

48:                                               ; preds = %42
  %49 = load i32, ptr %8, align 4, !tbaa !79
  %50 = load i32, ptr %7, align 4, !tbaa !79
  %51 = add nsw i32 %50, %49
  store i32 %51, ptr %7, align 4, !tbaa !79
  br label %52

52:                                               ; preds = %48, %42
  %53 = load i32, ptr %8, align 4, !tbaa !79
  %54 = load i32, ptr %5, align 4, !tbaa !79
  %55 = sub nsw i32 %54, %53
  store i32 %55, ptr %5, align 4, !tbaa !79
  br label %56

56:                                               ; preds = %52, %2
  %57 = load i32, ptr %5, align 4, !tbaa !79
  %58 = load i32, ptr %6, align 4, !tbaa !79
  %59 = icmp sge i32 %57, %58
  br i1 %59, label %65, label %60

60:                                               ; preds = %56
  %61 = load i32, ptr %5, align 4, !tbaa !79
  %62 = load i32, ptr %7, align 4, !tbaa !79
  %63 = add nsw i32 %61, %62
  %64 = icmp slt i32 %63, 0
  br i1 %64, label %65, label %66

65:                                               ; preds = %60, %56
  store i32 1, ptr %9, align 4
  br label %116

66:                                               ; preds = %60
  %67 = load i32, ptr %7, align 4, !tbaa !79
  %68 = load i32, ptr %6, align 4, !tbaa !79
  %69 = load i32, ptr %5, align 4, !tbaa !79
  %70 = sub nsw i32 %68, %69
  %71 = icmp sgt i32 %67, %70
  br i1 %71, label %72, label %76

72:                                               ; preds = %66
  %73 = load i32, ptr %6, align 4, !tbaa !79
  %74 = load i32, ptr %5, align 4, !tbaa !79
  %75 = sub nsw i32 %73, %74
  br label %78

76:                                               ; preds = %66
  %77 = load i32, ptr %7, align 4, !tbaa !79
  br label %78

78:                                               ; preds = %76, %72
  %79 = phi i32 [ %75, %72 ], [ %77, %76 ]
  store i32 %79, ptr %7, align 4, !tbaa !79
  %80 = load i32, ptr %5, align 4, !tbaa !79
  %81 = icmp slt i32 %80, 0
  br i1 %81, label %82, label %86

82:                                               ; preds = %78
  %83 = load i32, ptr %5, align 4, !tbaa !79
  %84 = load i32, ptr %7, align 4, !tbaa !79
  %85 = add nsw i32 %83, %84
  store i32 %85, ptr %7, align 4, !tbaa !79
  store i32 0, ptr %5, align 4, !tbaa !79
  br label %86

86:                                               ; preds = %82, %78
  %87 = load ptr, ptr %3, align 8, !tbaa !29
  %88 = load ptr, ptr %4, align 8, !tbaa !149
  %89 = load i32, ptr %5, align 4, !tbaa !79
  %90 = load i32, ptr %7, align 4, !tbaa !79
  call void @ff_h264_draw_horiz_band(ptr noundef %87, ptr noundef %88, i32 noundef %89, i32 noundef %90)
  %91 = load ptr, ptr %3, align 8, !tbaa !29
  %92 = getelementptr inbounds nuw %struct.H264Context, ptr %91, i32 0, i32 20
  %93 = load i32, ptr %92, align 4, !tbaa !106
  %94 = icmp ne i32 %93, 0
  br i1 %94, label %101, label %95

95:                                               ; preds = %86
  %96 = load ptr, ptr %3, align 8, !tbaa !29
  %97 = getelementptr inbounds nuw %struct.H264Context, ptr %96, i32 0, i32 104
  %98 = getelementptr inbounds nuw %struct.ERContext, ptr %97, i32 0, i32 10
  %99 = load i32, ptr %98, align 4, !tbaa !450
  %100 = icmp ne i32 %99, 0
  br i1 %100, label %101, label %102

101:                                              ; preds = %95, %86
  store i32 1, ptr %9, align 4
  br label %116

102:                                              ; preds = %95
  %103 = load ptr, ptr %3, align 8, !tbaa !29
  %104 = getelementptr inbounds nuw %struct.H264Context, ptr %103, i32 0, i32 8
  %105 = load ptr, ptr %104, align 8, !tbaa !108
  %106 = getelementptr inbounds nuw %struct.H264Picture, ptr %105, i32 0, i32 1
  %107 = load i32, ptr %5, align 4, !tbaa !79
  %108 = load i32, ptr %7, align 4, !tbaa !79
  %109 = add nsw i32 %107, %108
  %110 = sub nsw i32 %109, 1
  %111 = load ptr, ptr %3, align 8, !tbaa !29
  %112 = getelementptr inbounds nuw %struct.H264Context, ptr %111, i32 0, i32 41
  %113 = load i32, ptr %112, align 4, !tbaa !104
  %114 = icmp eq i32 %113, 2
  %115 = zext i1 %114 to i32
  call void @ff_thread_report_progress(ptr noundef %106, i32 noundef %110, i32 noundef %115)
  store i32 0, ptr %9, align 4
  br label %116

116:                                              ; preds = %102, %101, %65
  call void @llvm.lifetime.end.p0(i64 4, ptr %8) #10
  call void @llvm.lifetime.end.p0(i64 4, ptr %7) #10
  call void @llvm.lifetime.end.p0(i64 4, ptr %6) #10
  call void @llvm.lifetime.end.p0(i64 4, ptr %5) #10
  %117 = load i32, ptr %9, align 4
  switch i32 %117, label %119 [
    i32 0, label %118
    i32 1, label %118
  ]

118:                                              ; preds = %116, %116
  ret void

119:                                              ; preds = %116
  unreachable
}