; Function Attrs: nounwind uwtable
define internal fastcc void @decode_finish_row(ptr noundef %0, ptr noundef %1) unnamed_addr #0 {
  %3 = getelementptr inbounds nuw i8, ptr %1, i64 21036
  %4 = load i32, ptr %3, align 4, !tbaa !326
  %5 = getelementptr inbounds nuw i8, ptr %0, i64 731772
  %6 = load i32, ptr %5, align 4, !tbaa !100
  %7 = icmp ne i32 %6, 3
  %8 = zext i1 %7 to i32
  %9 = ashr i32 %4, %8
  %10 = shl nsw i32 %9, 4
  %11 = getelementptr inbounds nuw i8, ptr %0, i64 732428
  %12 = load i32, ptr %11, align 4, !tbaa !80
  %13 = shl nsw i32 %12, 4
  %14 = ashr exact i32 %13, %8
  %15 = getelementptr inbounds nuw i8, ptr %0, i64 731768
  %16 = load i32, ptr %15, align 8, !tbaa !101
  %17 = shl i32 16, %16
  %18 = getelementptr inbounds nuw i8, ptr %1, i64 84
  %19 = load i32, ptr %18, align 4, !tbaa !208
  %.not = icmp eq i32 %19, 0
  br i1 %.not, label %25, label %20

20:                                               ; preds = %2
  %21 = shl i32 20, %16
  %22 = add nsw i32 %10, %17
  %.not39 = icmp slt i32 %22, %14
  %23 = select i1 %.not39, i32 0, i32 %21
  %spec.select = add nsw i32 %23, %17
  %24 = sub nsw i32 %10, %21
  br label %25

25:                                               ; preds = %20, %2
  %.036 = phi i32 [ %spec.select, %20 ], [ %17, %2 ]
  %.0 = phi i32 [ %24, %20 ], [ %10, %2 ]
  %.not40 = icmp sge i32 %.0, %14
  %26 = add nsw i32 %.0, %.036
  %27 = icmp slt i32 %26, 0
  %or.cond = select i1 %.not40, i1 true, i1 %27
  br i1 %or.cond, label %46, label %28

28:                                               ; preds = %25
  %29 = sub nsw i32 %14, %.0
  %30 = tail call i32 @llvm.smin.i32(i32 %.036, i32 %29)
  %31 = tail call i32 @llvm.smin.i32(i32 %.0, i32 0)
  %spec.select44 = add nsw i32 %30, %31
  %spec.select45 = tail call i32 @llvm.smax.i32(i32 %.0, i32 0)
  tail call void @ff_h264_draw_horiz_band(ptr noundef nonnull %0, ptr noundef nonnull %1, i32 noundef %spec.select45, i32 noundef %spec.select44) #11
  %32 = getelementptr inbounds nuw i8, ptr %0, i64 730812
  %33 = load i32, ptr %32, align 4, !tbaa !102
  %.not41 = icmp eq i32 %33, 0
  br i1 %.not41, label %34, label %46

34:                                               ; preds = %28
  %35 = getelementptr inbounds nuw i8, ptr %0, i64 736716
  %36 = load i32, ptr %35, align 4, !tbaa !428
  %.not42 = icmp eq i32 %36, 0
  br i1 %.not42, label %37, label %46

37:                                               ; preds = %34
  %38 = getelementptr inbounds nuw i8, ptr %0, i64 729200
  %39 = load ptr, ptr %38, align 8, !tbaa !104
  %40 = getelementptr inbounds nuw i8, ptr %39, i64 8
  %41 = add nsw i32 %spec.select45, -1
  %42 = add i32 %41, %spec.select44
  %43 = load i32, ptr %5, align 4, !tbaa !100
  %44 = icmp eq i32 %43, 2
  %45 = zext i1 %44 to i32
  tail call void @ff_thread_report_progress(ptr noundef nonnull %40, i32 noundef %42, i32 noundef %45) #11
  br label %46

46:                                               ; preds = %28, %34, %25, %37
  ret void
}